; Function Attrs: nounwind uwtable
define range(i32 0, 2) i32 @Bac_NtkDfsUserBoxes(ptr noundef captures(none) initializes((164, 168), (180, 184)) %0) local_unnamed_addr #6 {
  %2 = getelementptr inbounds nuw i8, ptr %0, i64 160
  %3 = getelementptr i8, ptr %0, i64 80
  %.val.i = load i32, ptr %3, align 8, !tbaa !32
  %4 = load i32, ptr %2, align 8, !tbaa !28
  %.not.i.i.i = icmp slt i32 %4, %.val.i
  br i1 %.not.i.i.i, label %5, label %Vec_IntGrow.exit.i.i

5:                                                ; preds = %1
  %6 = getelementptr inbounds nuw i8, ptr %0, i64 168
  %7 = load ptr, ptr %6, align 8, !tbaa !23
  %.not9.i.i.i = icmp eq ptr %7, null
  %8 = sext i32 %.val.i to i64
  %9 = shl nsw i64 %8, 2
  br i1 %.not9.i.i.i, label %12, label %10

10:                                               ; preds = %5
  %11 = tail call ptr @realloc(ptr noundef nonnull %7, i64 noundef %9) #23
  br label %14

12:                                               ; preds = %5
  %13 = tail call noalias ptr @malloc(i64 noundef %9) #24
  br label %14

14:                                               ; preds = %12, %10
  %15 = phi ptr [ %11, %10 ], [ %13, %12 ]
  store ptr %15, ptr %6, align 8, !tbaa !23
  store i32 %.val.i, ptr %2, align 8, !tbaa !28
  br label %Vec_IntGrow.exit.i.i

Vec_IntGrow.exit.i.i:                             ; preds = %14, %1
  %16 = icmp sgt i32 %.val.i, 0
  br i1 %16, label %.lr.ph.i.i, label %Bac_NtkStartCopies.exit

.lr.ph.i.i:                                       ; preds = %Vec_IntGrow.exit.i.i
  %17 = getelementptr inbounds nuw i8, ptr %0, i64 168
  %18 = load ptr, ptr %17, align 8, !tbaa !23
  %wide.trip.count.i.i = zext nneg i32 %.val.i to i64
  %19 = shl nuw nsw i64 %wide.trip.count.i.i, 2
  tail call void @llvm.memset.p0.i64(ptr align 4 %18, i8 -1, i64 %19, i1 false), !tbaa !24
  br label %Bac_NtkStartCopies.exit

Bac_NtkStartCopies.exit:                          ; preds = %Vec_IntGrow.exit.i.i, %.lr.ph.i.i
  %20 = getelementptr inbounds nuw i8, ptr %0, i64 164
  store i32 %.val.i, ptr %20, align 4, !tbaa !22
  %21 = getelementptr inbounds nuw i8, ptr %0, i64 176
  %22 = getelementptr inbounds nuw i8, ptr %0, i64 180
  store i32 0, ptr %22, align 4, !tbaa !22
  %23 = getelementptr i8, ptr %0, i64 84
  %.val13 = load i32, ptr %23, align 4, !tbaa !33
  %24 = icmp sgt i32 %.val13, 0
  br i1 %24, label %.lr.ph, label %.loopexit

.lr.ph:                                           ; preds = %Bac_NtkStartCopies.exit
  %25 = getelementptr i8, ptr %0, i64 88
  br label %26

26:                                               ; preds = %.lr.ph, %33
  %.val16 = phi i32 [ %.val13, %.lr.ph ], [ %.val, %33 ]
  %indvars.iv = phi i64 [ 0, %.lr.ph ], [ %indvars.iv.next, %33 ]
  %.val12 = load ptr, ptr %25, align 8, !tbaa !34
  %27 = getelementptr inbounds nuw i8, ptr %.val12, i64 %indvars.iv
  %28 = load i8, ptr %27, align 1, !tbaa !25
  %.mask.i = and i8 %28, -2
  %.not = icmp eq i8 %.mask.i, 10
  br i1 %.not, label %29, label %33

29:                                               ; preds = %26
  %30 = trunc nuw nsw i64 %indvars.iv to i32
  %31 = tail call i32 @Bac_NtkDfsUserBoxes_rec(ptr noundef nonnull %0, i32 noundef %30, ptr noundef nonnull %21)
  %.not11 = icmp eq i32 %31, 0
  br i1 %.not11, label %32, label %._crit_edge

._crit_edge:                                      ; preds = %29
  %.val.pre = load i32, ptr %23, align 4, !tbaa !33
  br label %33

32:                                               ; preds = %29
  %puts = tail call i32 @puts(ptr nonnull dereferenceable(1) @str)
  br label %.loopexit

33:                                               ; preds = %._crit_edge, %26
  %.val = phi i32 [ %.val.pre, %._crit_edge ], [ %.val16, %26 ]
  %indvars.iv.next = add nuw nsw i64 %indvars.iv, 1
  %34 = sext i32 %.val to i64
  %35 = icmp slt i64 %indvars.iv.next, %34
  br i1 %35, label %26, label %.loopexit, !llvm.loop !74

.loopexit:                                        ; preds = %33, %Bac_NtkStartCopies.exit, %32
  %.010 = phi i32 [ 0, %32 ], [ 1, %Bac_NtkStartCopies.exit ], [ 1, %33 ]
  ret i32 %.010
}